target datalayout = "e-m:e-p270:32:32-p271:32:32-p272:64:64-i64:64-i128:128-f80:128-n8:16:32:64-S128"
target triple = "x86_64-pc-linux-gnu"

%struct.Complex = type { double, double }

; Function Attrs: nounwind uwtable
define i32 @isComplexPairUnitary(double %0, double %1, double %2, double %3) #0 {
  %5 = alloca %struct.Complex, align 8
  %6 = alloca %struct.Complex, align 8
  %7 = getelementptr inbounds nuw { double, double }, ptr %5, i32 0, i32 0
  store double %0, ptr %7, align 8
  %8 = getelementptr inbounds nuw { double, double }, ptr %5, i32 0, i32 1
  store double %1, ptr %8, align 8
  %9 = getelementptr inbounds nuw { double, double }, ptr %6, i32 0, i32 0
  store double %2, ptr %9, align 8
  %10 = getelementptr inbounds nuw { double, double }, ptr %6, i32 0, i32 1
  store double %3, ptr %10, align 8
  %11 = getelementptr inbounds nuw %struct.Complex, ptr %5, i32 0, i32 0
  %12 = load double, ptr %11, align 8, !tbaa !11
  %13 = getelementptr inbounds nuw %struct.Complex, ptr %5, i32 0, i32 0
  %14 = load double, ptr %13, align 8, !tbaa !11
  %15 = call double @llvm.fmuladd.f64(double %12, double %14, double -1.000000e+00)
  %16 = getelementptr inbounds nuw %struct.Complex, ptr %5, i32 0, i32 1
  %17 = load double, ptr %16, align 8, !tbaa !14
  %18 = getelementptr inbounds nuw %struct.Complex, ptr %5, i32 0, i32 1
  %19 = load double, ptr %18, align 8, !tbaa !14
  %20 = call double @llvm.fmuladd.f64(double %17, double %19, double %15)
  %21 = getelementptr inbounds nuw %struct.Complex, ptr %6, i32 0, i32 0
  %22 = load double, ptr %21, align 8, !tbaa !11
  %23 = getelementptr inbounds nuw %struct.Complex, ptr %6, i32 0, i32 0
  %24 = load double, ptr %23, align 8, !tbaa !11
  %25 = call double @llvm.fmuladd.f64(double %22, double %24, double %20)
  %26 = getelementptr inbounds nuw %struct.Complex, ptr %6, i32 0, i32 1
  %27 = load double, ptr %26, align 8, !tbaa !14
  %28 = getelementptr inbounds nuw %struct.Complex, ptr %6, i32 0, i32 1
  %29 = load double, ptr %28, align 8, !tbaa !14
  %30 = call double @llvm.fmuladd.f64(double %27, double %29, double %25)
  %31 = call double @llvm.fabs.f64(double %30)
  %32 = fcmp olt double %31, 1.000000e-13
  %33 = zext i1 %32 to i32
  ret i32 %33
}