; Function Attrs: mustprogress nofree norecurse nosync nounwind willreturn memory(none) uwtable
define range(i32 0, 2) i32 @isComplexPairUnitary(double %0, double %1, double %2, double %3) local_unnamed_addr #4 {
  %5 = tail call double @llvm.fmuladd.f64(double %0, double %0, double -1.000000e+00)
  %6 = tail call double @llvm.fmuladd.f64(double %1, double %1, double %5)
  %7 = tail call double @llvm.fmuladd.f64(double %2, double %2, double %6)
  %8 = tail call double @llvm.fmuladd.f64(double %3, double %3, double %7)
  %9 = tail call double @llvm.fabs.f64(double %8)
  %10 = fcmp olt double %9, 1.000000e-13
  %11 = zext i1 %10 to i32
  ret i32 %11
}